target datalayout = "e-m:e-p270:32:32-p271:32:32-p272:64:64-i64:64-i128:128-f80:128-n8:16:32:64-S128"
target triple = "x86_64-pc-linux-gnu"

%struct.ssl_hmac_st = type { ptr, ptr }

; Function Attrs: nounwind uwtable
define i32 @ssl_hmac_update(ptr noundef %0, ptr noundef %1, i64 noundef %2) #1 {
  %4 = alloca i32, align 4
  %5 = alloca ptr, align 8
  %6 = alloca ptr, align 8
  %7 = alloca i64, align 8
  store ptr %0, ptr %5, align 8, !tbaa !289
  store ptr %1, ptr %6, align 8, !tbaa !172
  store i64 %2, ptr %7, align 8, !tbaa !3
  %8 = load ptr, ptr %5, align 8, !tbaa !289
  %9 = getelementptr inbounds nuw %struct.ssl_hmac_st, ptr %8, i32 0, i32 0
  %10 = load ptr, ptr %9, align 8, !tbaa !308
  %11 = icmp ne ptr %10, null
  br i1 %11, label %12, label %19

12:                                               ; preds = %3
  %13 = load ptr, ptr %5, align 8, !tbaa !289
  %14 = getelementptr inbounds nuw %struct.ssl_hmac_st, ptr %13, i32 0, i32 0
  %15 = load ptr, ptr %14, align 8, !tbaa !308
  %16 = load ptr, ptr %6, align 8, !tbaa !172
  %17 = load i64, ptr %7, align 8, !tbaa !3
  %18 = call i32 @EVP_MAC_update(ptr noundef %15, ptr noundef %16, i64 noundef %17)
  store i32 %18, ptr %4, align 4
  br label %30

19:                                               ; preds = %3
  %20 = load ptr, ptr %5, align 8, !tbaa !289
  %21 = getelementptr inbounds nuw %struct.ssl_hmac_st, ptr %20, i32 0, i32 1
  %22 = load ptr, ptr %21, align 8, !tbaa !315
  %23 = icmp ne ptr %22, null
  br i1 %23, label %24, label %29

24:                                               ; preds = %19
  %25 = load ptr, ptr %5, align 8, !tbaa !289
  %26 = load ptr, ptr %6, align 8, !tbaa !172
  %27 = load i64, ptr %7, align 8, !tbaa !3
  %28 = call i32 @ssl_hmac_old_update(ptr noundef %25, ptr noundef %26, i64 noundef %27)
  store i32 %28, ptr %4, align 4
  br label %30

29:                                               ; preds = %19
  store i32 0, ptr %4, align 4
  br label %30

30:                                               ; preds = %29, %24, %12
  %31 = load i32, ptr %4, align 4
  ret i32 %31
}