; Function Attrs: nounwind uwtable
define i32 @ssl_hmac_update(ptr noundef %0, ptr noundef %1, i64 noundef %2) local_unnamed_addr #2 {
  %4 = load ptr, ptr %0, align 8, !tbaa !257
  %.not = icmp eq ptr %4, null
  br i1 %.not, label %7, label %5

5:                                                ; preds = %3
  %6 = tail call i32 @EVP_MAC_update(ptr noundef nonnull %4, ptr noundef %1, i64 noundef %2) #14
  br label %12

7:                                                ; preds = %3
  %8 = getelementptr inbounds nuw i8, ptr %0, i64 8
  %9 = load ptr, ptr %8, align 8, !tbaa !262
  %.not9 = icmp eq ptr %9, null
  br i1 %.not9, label %12, label %10

10:                                               ; preds = %7
  %11 = tail call i32 @ssl_hmac_old_update(ptr noundef nonnull %0, ptr noundef %1, i64 noundef %2) #14
  br label %12

12:                                               ; preds = %7, %10, %5
  %.0 = phi i32 [ %6, %5 ], [ %11, %10 ], [ 0, %7 ]
  ret i32 %.0
}